target datalayout = "e-m:e-p270:32:32-p271:32:32-p272:64:64-i64:64-i128:128-f80:128-n8:16:32:64-S128"
target triple = "x86_64-pc-linux-gnu"

%"class.cvc5::internal::NodeTemplate" = type { ptr }
%"class.cvc5::internal::NodeTemplate.0" = type { ptr }
%"class.cvc5::internal::theory::Rewriter" = type { ptr, ptr, [14 x ptr], %"class.std::vector", %"class.std::unique_ptr", %"class.std::unordered_set" }
%"class.std::vector" = type { %"struct.std::_Vector_base" }
%"struct.std::_Vector_base" = type { %"struct.std::_Vector_base<std::unique_ptr<cvc5::internal::theory::NoOpTheoryRewriter>, std::allocator<std::unique_ptr<cvc5::internal::theory::NoOpTheoryRewriter>>>::_Vector_impl" }
%"struct.std::_Vector_base<std::unique_ptr<cvc5::internal::theory::NoOpTheoryRewriter>, std::allocator<std::unique_ptr<cvc5::internal::theory::NoOpTheoryRewriter>>>::_Vector_impl" = type { %"struct.std::_Vector_base<std::unique_ptr<cvc5::internal::theory::NoOpTheoryRewriter>, std::allocator<std::unique_ptr<cvc5::internal::theory::NoOpTheoryRewriter>>>::_Vector_impl_data" }
%"struct.std::_Vector_base<std::unique_ptr<cvc5::internal::theory::NoOpTheoryRewriter>, std::allocator<std::unique_ptr<cvc5::internal::theory::NoOpTheoryRewriter>>>::_Vector_impl_data" = type { ptr, ptr, ptr }
%"class.std::unique_ptr" = type { %"struct.std::__uniq_ptr_data" }
%"struct.std::__uniq_ptr_data" = type { %"class.std::__uniq_ptr_impl" }
%"class.std::__uniq_ptr_impl" = type { %"class.std::tuple" }
%"class.std::tuple" = type { %"struct.std::_Tuple_impl" }
%"struct.std::_Tuple_impl" = type { %"struct.std::_Head_base.2" }
%"struct.std::_Head_base.2" = type { ptr }
%"class.std::unordered_set" = type { %"class.std::_Hashtable" }
%"class.std::_Hashtable" = type { ptr, i64, %"struct.std::__detail::_Hash_node_base", i64, %"struct.std::__detail::_Prime_rehash_policy", ptr }
%"struct.std::__detail::_Hash_node_base" = type { ptr }
%"struct.std::__detail::_Prime_rehash_policy" = type { float, i64 }
%"class.cvc5::internal::theory::quantifiers::ExtendedRewriter" = type { ptr, ptr, i8, %"class.cvc5::internal::NodeTemplate", %"class.cvc5::internal::NodeTemplate", %"class.cvc5::internal::NodeTemplate" }

; Function Attrs: mustprogress uwtable
define linkonce_odr hidden void @_ZN4cvc58internal4expr9NodeValue3incEv(ptr noundef nonnull align 8 dereferenceable(24) %0) #4 comdat align 2 {
  %2 = alloca ptr, align 8
  store ptr %0, ptr %2, align 8, !tbaa !136
  %3 = load ptr, ptr %2, align 8
  %4 = load i64, ptr %3, align 8
  %5 = lshr i64 %4, 40
  %6 = and i64 %5, 1048575
  %7 = trunc i64 %6 to i32
  %8 = icmp ult i32 %7, 1048574
  %9 = zext i1 %8 to i64
  %10 = call i64 @llvm.expect.i64(i64 %9, i64 1)
  %11 = icmp ne i64 %10, 0
  br i1 %11, label %12, label %24

12:                                               ; preds = %1
  %13 = load i64, ptr %3, align 8
  %14 = lshr i64 %13, 40
  %15 = and i64 %14, 1048575
  %16 = trunc i64 %15 to i32
  %17 = add i32 %16, 1
  %18 = zext i32 %17 to i64
  %19 = load i64, ptr %3, align 8
  %20 = and i64 %18, 1048575
  %21 = shl i64 %20, 40
  %22 = and i64 %19, -1152920405095219201
  %23 = or i64 %22, %21
  store i64 %23, ptr %3, align 8
  br label %46

24:                                               ; preds = %1
  %25 = load i64, ptr %3, align 8
  %26 = lshr i64 %25, 40
  %27 = and i64 %26, 1048575
  %28 = trunc i64 %27 to i32
  %29 = icmp eq i32 %28, 1048574
  %30 = zext i1 %29 to i64
  %31 = call i64 @llvm.expect.i64(i64 %30, i64 0)
  %32 = icmp ne i64 %31, 0
  br i1 %32, label %33, label %45

33:                                               ; preds = %24
  %34 = load i64, ptr %3, align 8
  %35 = lshr i64 %34, 40
  %36 = and i64 %35, 1048575
  %37 = trunc i64 %36 to i32
  %38 = add i32 %37, 1
  %39 = zext i32 %38 to i64
  %40 = load i64, ptr %3, align 8
  %41 = and i64 %39, 1048575
  %42 = shl i64 %41, 40
  %43 = and i64 %40, -1152920405095219201
  %44 = or i64 %43, %42
  store i64 %44, ptr %3, align 8
  call void @_ZN4cvc58internal4expr9NodeValue20markRefCountMaxedOutEv(ptr noundef nonnull align 8 dereferenceable(24) %3)
  br label %45

45:                                               ; preds = %33, %24
  br label %46

46:                                               ; preds = %45, %12
  ret void
}

; Function Attrs: mustprogress uwtable
define linkonce_odr hidden void @_ZN4cvc58internal12NodeTemplateILb1EEC2ERKNS1_ILb0EEE(ptr noundef nonnull align 8 dereferenceable(8) %0, ptr noundef nonnull align 8 dereferenceable(8) %1) unnamed_addr #4 comdat align 2 {
  %3 = alloca ptr, align 8
  %4 = alloca ptr, align 8
  store ptr %0, ptr %3, align 8, !tbaa !59
  store ptr %1, ptr %4, align 8, !tbaa !10
  %5 = load ptr, ptr %3, align 8
  %6 = load ptr, ptr %4, align 8, !tbaa !10
  %7 = getelementptr inbounds nuw %"class.cvc5::internal::NodeTemplate.0", ptr %6, i32 0, i32 0
  %8 = load ptr, ptr %7, align 8, !tbaa !12
  %9 = getelementptr inbounds nuw %"class.cvc5::internal::NodeTemplate", ptr %5, i32 0, i32 0
  store ptr %8, ptr %9, align 8, !tbaa !61
  %10 = getelementptr inbounds nuw %"class.cvc5::internal::NodeTemplate", ptr %5, i32 0, i32 0
  %11 = load ptr, ptr %10, align 8, !tbaa !61
  call void @_ZN4cvc58internal4expr9NodeValue3incEv(ptr noundef nonnull align 8 dereferenceable(24) %11)
  ret void
}

; Function Attrs: mustprogress uwtable
define hidden void @_ZN4cvc58internal6theory8Rewriter15extendedRewriteENS0_12NodeTemplateILb0EEEb(ptr dead_on_unwind noalias writable sret(%"class.cvc5::internal::NodeTemplate") align 8 %0, ptr noundef nonnull align 8 dereferenceable(216) %1, ptr noundef %2, i1 noundef zeroext %3) #4 align 2 personality ptr @__gxx_personality_v0 {
  %5 = alloca ptr, align 8
  %6 = alloca ptr, align 8
  %7 = alloca ptr, align 8
  %8 = alloca i8, align 1
  %9 = alloca %"class.cvc5::internal::theory::quantifiers::ExtendedRewriter", align 8
  %10 = alloca %"class.cvc5::internal::NodeTemplate", align 8
  %11 = alloca ptr, align 8
  %12 = alloca i32, align 4
  store ptr %0, ptr %5, align 8
  store ptr %1, ptr %6, align 8, !tbaa !3
  store ptr %2, ptr %7, align 8, !tbaa !10
  %13 = zext i1 %3 to i8
  store i8 %13, ptr %8, align 1, !tbaa !22
  %14 = load ptr, ptr %6, align 8
  call void @llvm.lifetime.start.p0(i64 48, ptr %9) #3
  %15 = getelementptr inbounds nuw %"class.cvc5::internal::theory::Rewriter", ptr %14, i32 0, i32 0
  %16 = load ptr, ptr %15, align 8, !tbaa !27
  %17 = load i8, ptr %8, align 1, !tbaa !22, !range !82, !noundef !83
  %18 = trunc i8 %17 to i1
  call void @_ZN4cvc58internal6theory11quantifiers16ExtendedRewriterC1EPNS0_11NodeManagerERNS1_8RewriterEb(ptr noundef nonnull align 8 dereferenceable(48) %9, ptr noundef %16, ptr noundef nonnull align 8 dereferenceable(216) %14, i1 noundef zeroext %18)
  invoke void @_ZN4cvc58internal12NodeTemplateILb1EEC2ERKNS1_ILb0EEE(ptr noundef nonnull align 8 dereferenceable(8) %10, ptr noundef nonnull align 8 dereferenceable(8) %2)
          to label %19 unwind label %21

19:                                               ; preds = %4
  invoke void @_ZNK4cvc58internal6theory11quantifiers16ExtendedRewriter15extendedRewriteENS0_12NodeTemplateILb1EEE(ptr dead_on_unwind writable sret(%"class.cvc5::internal::NodeTemplate") align 8 %0, ptr noundef nonnull align 8 dereferenceable(48) %9, ptr noundef %10)
          to label %20 unwind label %25

20:                                               ; preds = %19
  call void @_ZN4cvc58internal12NodeTemplateILb1EED2Ev(ptr noundef nonnull align 8 dereferenceable(8) %10) #3
  call void @_ZN4cvc58internal6theory11quantifiers16ExtendedRewriterD2Ev(ptr noundef nonnull align 8 dereferenceable(48) %9) #3
  call void @llvm.lifetime.end.p0(i64 48, ptr %9) #3
  ret void

21:                                               ; preds = %4
  %22 = landingpad { ptr, i32 }
          cleanup
  %23 = extractvalue { ptr, i32 } %22, 0
  store ptr %23, ptr %11, align 8
  %24 = extractvalue { ptr, i32 } %22, 1
  store i32 %24, ptr %12, align 4
  br label %29

25:                                               ; preds = %19
  %26 = landingpad { ptr, i32 }
          cleanup
  %27 = extractvalue { ptr, i32 } %26, 0
  store ptr %27, ptr %11, align 8
  %28 = extractvalue { ptr, i32 } %26, 1
  store i32 %28, ptr %12, align 4
  call void @_ZN4cvc58internal12NodeTemplateILb1EED2Ev(ptr noundef nonnull align 8 dereferenceable(8) %10) #3
  br label %29

29:                                               ; preds = %25, %21
  call void @_ZN4cvc58internal6theory11quantifiers16ExtendedRewriterD2Ev(ptr noundef nonnull align 8 dereferenceable(48) %9) #3
  call void @llvm.lifetime.end.p0(i64 48, ptr %9) #3
  br label %30

30:                                               ; preds = %29
  %31 = load ptr, ptr %11, align 8
  %32 = load i32, ptr %12, align 4
  %33 = insertvalue { ptr, i32 } poison, ptr %31, 0
  %34 = insertvalue { ptr, i32 } %33, i32 %32, 1
  resume { ptr, i32 } %34
}