; Function Attrs: mustprogress uwtable
define hidden void @_ZN4cvc58internal6theory8Rewriter15extendedRewriteENS0_12NodeTemplateILb0EEEb(ptr dead_on_unwind noalias writable sret(%"class.cvc5::internal::NodeTemplate") align 8 %0, ptr noundef nonnull align 8 dereferenceable(216) %1, ptr noundef readonly captures(none) %2, i1 noundef zeroext %3) local_unnamed_addr #3 align 2 personality ptr @__gxx_personality_v0 {
  %5 = alloca %"class.cvc5::internal::theory::quantifiers::ExtendedRewriter", align 8
  %6 = alloca %"class.cvc5::internal::NodeTemplate", align 8
  call void @llvm.lifetime.start.p0(i64 48, ptr nonnull %5) #24
  %7 = load ptr, ptr %1, align 8, !tbaa !361
  call void @_ZN4cvc58internal6theory11quantifiers16ExtendedRewriterC1EPNS0_11NodeManagerERNS1_8RewriterEb(ptr noundef nonnull align 8 dereferenceable(48) %5, ptr noundef %7, ptr noundef nonnull align 8 dereferenceable(216) %1, i1 noundef zeroext %3)
  %8 = load ptr, ptr %2, align 8, !tbaa !3
  store ptr %8, ptr %6, align 8, !tbaa !11
  %9 = load i64, ptr %8, align 8
  %10 = lshr i64 %9, 40
  %11 = trunc nuw nsw i64 %10 to i32
  %12 = and i32 %11, 1048575
  %13 = icmp samesign ult i32 %12, 1048574
  br i1 %13, label %14, label %19, !prof !113

14:                                               ; preds = %4
  %15 = add i64 %9, 1099511627776
  %16 = and i64 %15, 1152920405095219200
  %17 = and i64 %9, -1152920405095219201
  %18 = or disjoint i64 %16, %17
  store i64 %18, ptr %8, align 8
  br label %_ZN4cvc58internal12NodeTemplateILb1EEC2ERKNS1_ILb0EEE.exit

19:                                               ; preds = %4
  %20 = icmp eq i32 %12, 1048574
  br i1 %20, label %21, label %_ZN4cvc58internal12NodeTemplateILb1EEC2ERKNS1_ILb0EEE.exit, !prof !114

21:                                               ; preds = %19
  %22 = or i64 %9, 1152920405095219200
  store i64 %22, ptr %8, align 8
  invoke void @_ZN4cvc58internal4expr9NodeValue20markRefCountMaxedOutEv(ptr noundef nonnull align 8 dereferenceable(24) %8)
          to label %_ZN4cvc58internal12NodeTemplateILb1EEC2ERKNS1_ILb0EEE.exit unwind label %37

_ZN4cvc58internal12NodeTemplateILb1EEC2ERKNS1_ILb0EEE.exit: ; preds = %19, %14, %21
  invoke void @_ZNK4cvc58internal6theory11quantifiers16ExtendedRewriter15extendedRewriteENS0_12NodeTemplateILb1EEE(ptr dead_on_unwind writable sret(%"class.cvc5::internal::NodeTemplate") align 8 %0, ptr noundef nonnull align 8 dereferenceable(48) %5, ptr noundef nonnull %6)
          to label %23 unwind label %39

23:                                               ; preds = %_ZN4cvc58internal12NodeTemplateILb1EEC2ERKNS1_ILb0EEE.exit
  %24 = load ptr, ptr %6, align 8, !tbaa !11
  %25 = load i64, ptr %24, align 8
  %26 = and i64 %25, 1152920405095219200
  %.not.i.i = icmp eq i64 %26, 1152920405095219200
  br i1 %.not.i.i, label %_ZN4cvc58internal12NodeTemplateILb1EED2Ev.exit, label %27, !prof !114

27:                                               ; preds = %23
  %28 = add i64 %25, 1152920405095219200
  %29 = and i64 %28, 1152920405095219200
  %30 = and i64 %25, -1152920405095219201
  %31 = or disjoint i64 %29, %30
  store i64 %31, ptr %24, align 8
  %32 = icmp eq i64 %29, 0
  br i1 %32, label %33, label %_ZN4cvc58internal12NodeTemplateILb1EED2Ev.exit, !prof !114

33:                                               ; preds = %27
  invoke void @_ZN4cvc58internal4expr9NodeValue15markForDeletionEv(ptr noundef nonnull align 8 dereferenceable(24) %24)
          to label %_ZN4cvc58internal12NodeTemplateILb1EED2Ev.exit unwind label %34

34:                                               ; preds = %33
  %35 = landingpad { ptr, i32 }
          catch ptr null
  %36 = extractvalue { ptr, i32 } %35, 0
  call void @__clang_call_terminate(ptr %36) #25
  unreachable

_ZN4cvc58internal12NodeTemplateILb1EED2Ev.exit:   ; preds = %23, %27, %33
  call void @_ZN4cvc58internal6theory11quantifiers16ExtendedRewriterD2Ev(ptr noundef nonnull align 8 dereferenceable(48) %5) #24
  call void @llvm.lifetime.end.p0(i64 48, ptr nonnull %5) #24
  ret void

37:                                               ; preds = %21
  %38 = landingpad { ptr, i32 }
          cleanup
  br label %41

39:                                               ; preds = %_ZN4cvc58internal12NodeTemplateILb1EEC2ERKNS1_ILb0EEE.exit
  %40 = landingpad { ptr, i32 }
          cleanup
  call void @_ZN4cvc58internal12NodeTemplateILb1EED2Ev(ptr noundef nonnull align 8 dereferenceable(8) %6) #24
  br label %41

41:                                               ; preds = %39, %37
  %.pn = phi { ptr, i32 } [ %40, %39 ], [ %38, %37 ]
  call void @_ZN4cvc58internal6theory11quantifiers16ExtendedRewriterD2Ev(ptr noundef nonnull align 8 dereferenceable(48) %5) #24
  call void @llvm.lifetime.end.p0(i64 48, ptr nonnull %5) #24
  resume { ptr, i32 } %.pn
}